; Function Attrs: mustprogress nounwind uwtable
define internal fastcc void @_ZNSt8optionalIN12_GLOBAL__N_112cmSourceInfoEED2Ev(ptr noundef nonnull align 8 dereferenceable(136) %0) unnamed_addr #4 align 2 personality ptr @__gxx_personality_v0 {
  %2 = getelementptr inbounds i8, ptr %0, i64 128
  %3 = load i8, ptr %2, align 8
  %4 = and i8 %3, 1
  %.not.i.i.i = icmp eq i8 %4, 0
  br i1 %.not.i.i.i, label %_ZNSt14_Optional_baseIN12_GLOBAL__N_112cmSourceInfoELb0ELb0EED2Ev.exit, label %5

5:                                                ; preds = %1
  store i8 0, ptr %2, align 8
  %6 = getelementptr inbounds i8, ptr %0, i64 104
  %7 = load ptr, ptr %6, align 8
  %8 = getelementptr inbounds i8, ptr %0, i64 112
  %9 = load ptr, ptr %8, align 8
  %.not4.i.i.i.i.i.i.i.i.i = icmp eq ptr %7, %9
  br i1 %.not4.i.i.i.i.i.i.i.i.i, label %_ZSt8_DestroyIPNSt7__cxx1112basic_stringIcSt11char_traitsIcESaIcEEES5_EvT_S7_RSaIT0_E.exit.i.i.i.i.i.i, label %.lr.ph.i.i.i.i.i.i.i.i.i

.lr.ph.i.i.i.i.i.i.i.i.i:                         ; preds = %5, %.lr.ph.i.i.i.i.i.i.i.i.i
  %.05.i.i.i.i.i.i.i.i.i = phi ptr [ %10, %.lr.ph.i.i.i.i.i.i.i.i.i ], [ %7, %5 ]
  tail call void @_ZNSt7__cxx1112basic_stringIcSt11char_traitsIcESaIcEED1Ev(ptr noundef nonnull align 8 dereferenceable(32) %.05.i.i.i.i.i.i.i.i.i) #23
  %10 = getelementptr inbounds i8, ptr %.05.i.i.i.i.i.i.i.i.i, i64 32
  %.not.i.i.i.i.i.i.i.i.i = icmp eq ptr %10, %9
  br i1 %.not.i.i.i.i.i.i.i.i.i, label %_ZSt8_DestroyIPNSt7__cxx1112basic_stringIcSt11char_traitsIcESaIcEEES5_EvT_S7_RSaIT0_E.exitthread-pre-split.i.i.i.i.i.i, label %.lr.ph.i.i.i.i.i.i.i.i.i, !llvm.loop !177

_ZSt8_DestroyIPNSt7__cxx1112basic_stringIcSt11char_traitsIcESaIcEEES5_EvT_S7_RSaIT0_E.exitthread-pre-split.i.i.i.i.i.i: ; preds = %.lr.ph.i.i.i.i.i.i.i.i.i
  %.pr.i.i.i.i.i.i = load ptr, ptr %6, align 8
  br label %_ZSt8_DestroyIPNSt7__cxx1112basic_stringIcSt11char_traitsIcESaIcEEES5_EvT_S7_RSaIT0_E.exit.i.i.i.i.i.i

_ZSt8_DestroyIPNSt7__cxx1112basic_stringIcSt11char_traitsIcESaIcEEES5_EvT_S7_RSaIT0_E.exit.i.i.i.i.i.i: ; preds = %_ZSt8_DestroyIPNSt7__cxx1112basic_stringIcSt11char_traitsIcESaIcEEES5_EvT_S7_RSaIT0_E.exitthread-pre-split.i.i.i.i.i.i, %5
  %11 = phi ptr [ %.pr.i.i.i.i.i.i, %_ZSt8_DestroyIPNSt7__cxx1112basic_stringIcSt11char_traitsIcESaIcEEES5_EvT_S7_RSaIT0_E.exitthread-pre-split.i.i.i.i.i.i ], [ %7, %5 ]
  %.not.i.i.i.i.i.i.i.i = icmp eq ptr %11, null
  br i1 %.not.i.i.i.i.i.i.i.i, label %_ZNSt22_Optional_payload_baseIN12_GLOBAL__N_112cmSourceInfoEE10_M_destroyEv.exit.i.i.i, label %12

12:                                               ; preds = %_ZSt8_DestroyIPNSt7__cxx1112basic_stringIcSt11char_traitsIcESaIcEEES5_EvT_S7_RSaIT0_E.exit.i.i.i.i.i.i
  tail call void @_ZdlPv(ptr noundef nonnull %11) #26
  br label %_ZNSt22_Optional_payload_baseIN12_GLOBAL__N_112cmSourceInfoEE10_M_destroyEv.exit.i.i.i

_ZNSt22_Optional_payload_baseIN12_GLOBAL__N_112cmSourceInfoEE10_M_destroyEv.exit.i.i.i: ; preds = %12, %_ZSt8_DestroyIPNSt7__cxx1112basic_stringIcSt11char_traitsIcESaIcEEES5_EvT_S7_RSaIT0_E.exit.i.i.i.i.i.i
  tail call void @_ZN13cmScanDepInfoD2Ev(ptr noundef nonnull align 8 dereferenceable(104) %0) #23
  br label %_ZNSt14_Optional_baseIN12_GLOBAL__N_112cmSourceInfoELb0ELb0EED2Ev.exit

_ZNSt14_Optional_baseIN12_GLOBAL__N_112cmSourceInfoELb0ELb0EED2Ev.exit: ; preds = %1, %_ZNSt22_Optional_payload_baseIN12_GLOBAL__N_112cmSourceInfoEE10_M_destroyEv.exit.i.i.i
  ret void
}